
 Start         Length     Name                   Class
 0000:00000000 000023C58H ROM                    CODE
 0000:00000000 000010000H RAM                    
 0000:00000000 000000400H TIM2_                  
 0000:00000000 000000400H TIM3_                  
 0000:00000000 000000400H LCD                    
 0000:00000000 000000400H RTC                    
 0000:00000000 000000400H USART2_                
 0000:00000000 000000400H PWR                    
 0000:00000000 000000400H EXTI                   
 0000:00000000 000000400H ADC                    
 0000:00000000 000000400H SDIO                   
 0000:00000000 000002000H GPIO                   
 0000:00000000 000000038H RCC                    
 0000:00000000 000000400H FLASH                  
 0000:00000000 00000003CH SCB                    


  Address         Publics by Value

 0000:00006124       update_display
 0000:000061CA       scr_update_with_new_meas
 0000:0000638E       log_playback_show_sample
 0000:000063E0       scr_show_num
 0000:0000644A       scr_set_decimal_point
 0000:000064C6       scr_update_decimal_point
 0000:000064EE       scr_refresh_meas_units_and_icons
 0000:0000652A       scr_update_status_icons
 0000:00006574       scr_update_units
 0000:000069B8       scr_update_milli_for_VA
 0000:000069E6       scr_update_for_playback
 0000:00006A26       scr_update_units_in_certain_modes
 0000:00006A64       scr_update_cap_units
 0000:00006AAA       scr_update_ohm_units
 0000:00006B10       scr_update_hz_units
 0000:00006C00       msg
 0000:00006C10       update_subscr
 0000:000071A2       subscr_show_num
 0000:0000720E       subscr_show_ac_input_hz
 0000:0000722E       subscr_set_decimal_point
 0000:00007298       subscr_calc_power_amp_point
 0000:00007306       set_point_for_ac_input_hz
 0000:0000735E       calc_point_for_ac_hz
 0000:00007396       erase_part_of_screen_in_order_to_blink_value_being_edited
 0000:00007410       subscr_show_digits
 0000:0000747C       subscr_disp_burden_voltage
 0000:000075AA       show_burden_msg
 0000:000075EE       show_batt_charge
 0000:00007664       show_contrast
 0000:000076B4       show_apo_status
 0000:000076E4       show_logging_interval
 0000:0000779C       subscr_show_dBm
 0000:000078C0       show_burden_display_status
 0000:000078F8       show_diode_voltage
 0000:00007934       show_continuity_threshold
 0000:0000799C       show_year_on_subscreen
 0000:000079E0       show_two_nums_on_subscreen
 0000:00007A88       show_two_nums_on_subscreen_with_dash
 0000:00007B34       show_hour_min_on_subscr
 0000:00007B78       show_meter_serial
 0000:00007BD8       show_temperature
 0000:00007CA0       convert_temp_and_round
 0000:00007CDC       update_bargraph_if_in_appropriate_range
 0000:00007D40       scr_update_bargraph
 0000:000080DC       calc_bargraph_pos_for_mode
 0000:00008160       calc_bargraph_pos
 0000:000082B4       scr_update_bargraph_range
 0000:000083EC       a
 0000:000083F0       scr_update_bargraph_range_5s
 0000:00008480       scr_reset_bargraph
 0000:000084DC       scr_turn_off_bargraph
 0000:00008588       scr_clear_bargraph_bars
 0000:0000880C       show_cal_msg_countdown
 0000:000088C0       show_cal_msg_end
 0000:00008920       show_sdcal_msg
 0000:00008944       show_sdsav_msg
 0000:00008968       show_sdset_msg
 0000:0000898C       show_sd_cal_success
 0000:000089B4       show_sd_cal_err
 0000:000089DC       show_cal_mode_msg
 0000:00008A04       show_cal_mode_msg_on_subscr
 0000:00008A34       show_low_batt
 0000:00008A84       show_msg_logging_ended
 0000:00008AD0       show_sd_error
 0000:00008B3C       show_overload
 0000:00008B8E       show_temp_error
 0000:00008BE0       show_lead_err
 0000:00008BF2       scr_erase
 0000:00008C34       put_msg_on_scr
 0000:00008C68       put_chr_on_scr_at_offset
 0000:00008C7A       put_2_chrs_on_scr_at_offset
 0000:00008CA0       scr_turn_off_units
 0000:00008DB0       scr_update_apo_status
 0000:00008DFC       scr_update_low_batt_icon
 0000:00008E38       scr_update_bt_icon
 0000:00008E78       scr_update_autorange_icon
 0000:00008EB2       determine_if_autoranging
 0000:00008F34       scr_update_min_max_icons
 0000:0000903E       scr_update_rel_meas_icon
 0000:000090B2       scr_update_hold_icons
 0000:00009138       hold_get_status
 0000:0000918C       scr_update_1ms_peak_icon
 0000:0000923E       scr_update_lpf_icon
 0000:0000929C       scr_update_main_acdc_icons
 0000:0000945C       scr_update_mem_icon
 0000:000094A2       scr_update_danger_icon
 0000:000094C8       scr_update_temp_unit
 0000:00009554       subscr_update_units
 0000:000097E8       subscr_set_power_amp_units
 0000:00009864       subscr_turn_off_units
 0000:00009920       lcd_turn_off_all_segments
 0000:0000995C       show_firmware_version
 0000:000099A4       lcd_turn_on_all_segments
 0000:00009A58       set_7seg
 0000:0000A104       ascii_to_segs
 0000:0000A198       conv_uint_to_bcd_tmp
 0000:0000A238       conv_bcd_tmp_to_scr
 0000:0000A40C       update_lcd_if_appropriate
 0000:0000A4A8       lcd_init
 0000:0000A52E       gpio_config_lcd_pins
 0000:0000A75E       lcd_set_contrast
 0000:0000A7D0       maybe_refresh_lcd_contrast_register
 0000:0000A8C0       read_eeprom_byte_also
 0000:0000A8CC       try_to_write_byte_10_times_also_also
 0000:0000A8DE       log_prepare_sample
 0000:0000AC9C       log_prepare_sample_main_measurement
 0000:0000AD74       logging_begin
 0000:0000AE60       logging_end
 0000:0000AEB0       log_save_sample
 0000:0000AF12       save_eeprom_sample_count
 0000:0000AF32       load_eeprom_sample_count
 0000:0000AF7E       log_calc_playback_window
 0000:0000AFD6       log_get_eeprom_idx_for_sample
 0000:0000B016       write_logged_meas_mode_and_range_to_eeprom
 0000:0000B032       read_logged_meas_mode_range_from_eeprom
 0000:0000B052       set_log_start_time_and_write_to_eeprom_badly
 0000:0000B0EA       load_log_start_time_from_eeprom_badly
 0000:0000B13A       set_log_end_time_and_write_start_time_to_eeprom_badly
 0000:0000B1D2       load_log_end_time_from_eeprom_badly
 0000:0000B222       log_write_sample_to_eeprom
 0000:0000B2E4       log_read_sample_from_eeprom
 0000:0000B496       load_curr_year_month
 0000:0000B4C0       save_last_cal_year_month
 0000:0000B4D8       load_meter_serial
 0000:0000B504       save_meter_serial
 0000:0000B558       get_last_mode_v
 0000:0000B588       get_last_mode_mv
 0000:0000B5AE       get_last_mode_hz
 0000:0000B5D4       get_last_mode_ohms
 0000:0000B600       get_last_mode_pwr
 0000:0000B620       get_last_mode_uA
 0000:0000B64C       get_last_mode_A
 0000:0000B680       write_curr_meas_mode_with_a_lockout_or_something
 0000:0000B6E8       save_curr_meas_mode
 0000:0000B794       load_logging_interval
 0000:0000B7BC       save_logging_interval
 0000:0000B7CC       load_lcd_contrast
 0000:0000B7F4       save_lcd_contrast
 0000:0000B804       load_curr_apo_status
 0000:0000B832       save_curr_apo_status
 0000:0000B842       load_temp_mode
 0000:0000B864       save_curr_temp_unit
 0000:0000B874       load_hv_diode_mode
 0000:0000B8A2       save_diode_voltage
 0000:0000B8B2       load_curr_cont_threshold
 0000:0000B8D8       save_curr_continuity_threshold
 0000:0000B8E8       load_burden_display_enabled
 0000:0000B91C       save_burden_enabled_for_power_ranges
 0000:0000B92C       cal_load_amp_rel
 0000:0000B9C0       cal_save_amp_rel
 0000:0000BA12       cal_erase_amp_rel_data
 0000:0000BA52       calc_amp_rel_eeprom_addr
 0000:0000BAA0       get_cal_factor_addr
 0000:0000BAC8       get_ac_cal_data_addr
 0000:0000BB24       cal_load_factors_for_mode_and_range
 0000:0000BD92       cal_ohms_50M_offset_factor_validate
 0000:0000BDD4       cal_load_va_factors
 0000:0000BE84       cal_validate_ac_factor
 0000:0000BF44       cal_load_ac_factors
 0000:0000BFE8       cal_write_factor
 0000:0000C252       cal_save_va_factors
 0000:0000C2DE       cal_save_ac_factor
 0000:0000C37E       cal_erase_ac_factors
 0000:0000C3BC       read_eeprom_4byte
 0000:0000C410       read_eeprom_2byte_signed
 0000:0000C43C       read_eeprom_2byte
 0000:0000C476       read_eeprom_byte
 0000:0000C488       read_eeprom_byte_core
 0000:0000C4A0       write_eeprom_4byte
 0000:0000C4E0       write_eeprom_2byte
 0000:0000C506       try_to_write_byte_10_times_also
 0000:0000C528       write_eeprom_byte_without_first_erasing
 0000:0000C598       a2
 0000:0000C5E4       try_to_write_byte_10_times
 0000:0000C618       bt_echo_rx_msg
 0000:0000C640       bt_process_received_msg
 0000:0000C77E       read_hex_digit_from_bt_rx_msg
 0000:0000C828       update_bt_power
 0000:0000C848       write_time_and_serial_to_bt_buf
 0000:0000C8DE       build_and_write_bt_packet_also
 0000:0000C8E6       build_and_write_bt_packet
 0000:0000CDA8       bt_write_temp_sub
 0000:0000CE28       bt_write_battery_sub
 0000:0000CE78       bt_write_apo_sub
 0000:0000CED4       bt_write_lcd_sub
 0000:0000CF28       bt_write_year_sub
 0000:0000CF76       bt_write_month_day_sub
 0000:0000CFF8       bt_write_hour_minute_sub
 0000:0000D084       bt_write_spl1_sub
 0000:0000D244       USART
 0000:0000D274       bt_write_spl2_sub
 0000:0000D3D4       bt_write_spl3_sub
 0000:0000D44C       bt_write_hz_sub
 0000:0000D4DC       bt_write_power_volts
 0000:0000D588       bt_write_power_amps
 0000:0000D654       bt_write_burden_sub
 0000:0000D6C4       bt_write_no_sub
 0000:0000D71C       write_hex_2bytes_to_bt_buf
 0000:0000D794       write_hex_byte_to_bt_buf
 0000:0000D7D8       hex_digit_to_ascii
 0000:0000D7F6       usart_write_byte
 0000:0000D816       end_setup_without_saving_after_2min_timeout
 0000:0000D904       meter_process_range_mode_changed
 0000:0000DB44       update_max_digits_in_range
 0000:0000DBAC       subscr_periodically_switch_between_amps_and_volts_for_power
 0000:0000DC1C       subscr_update_power_amps_or_volts_display
 0000:0000DC58       meter_set_default_subscr_mode
 0000:0000DD3C       meas_prepare_for_new_mode_range
 0000:0000DD4E       meas_config_hy_and_load_cal_factors
 0000:0000DDF8       update_stuff_based_on_new_power_range
 0000:0000DE54       calc_decimal_place_for_mode_range
 0000:0000E044       meter_set_mode_range_change_delay
 0000:0000E1FE       meter_process_new_meas
 0000:0000E308       meter_process_autorange
 0000:0000E654       meter_process_hold
 0000:0000E834       meter_process_rel_meas
 0000:0000E87C       meter_process_min_max
 0000:0000E9E8       meter_process_overload
 0000:0000EBAC       is_abs_out_of_range
 0000:0000EBC2       finish_sys_init_and_handle_boot_buttons
 0000:0000ED94       meas_cap_reset_no_reading_timeout_timer
 0000:0000EDE2       spinloop
 0000:0000EDF2       SysTick_Handler_real
 0000:0000EE18       reset_apo_timeout
 0000:0000EE48       hy_change_CTA_val_for_ac_freq
 0000:0000EF18       beep_contentedly
 0000:0000EF26       beep_excitedly
 0000:0000EF34       beep_angrily
 0000:0000EF42       beep_and_reset_apo_timeout_if_asked
 0000:0000EF74       beep_ms
 0000:0000EF94       meas_apply_offset_adj
 0000:0000EFD4       cal_update_curr_offset_accu
 0000:0000F098       cal_update_cap_offset_accu
 0000:0000F108       cal_update_ac_offset_accu
 0000:0000F1A8       cal_prepare_ac_factor_calibration
 0000:0000F38C       meas_perform_offset_adj
 0000:0000F3FC       meas_perform_offset_adj_ac
 0000:0000F412       meas_apply_gain_adj
 0000:0000F450       meas_perform_gain_adj
 0000:0000F4A0       cal_update_curr_gain_accu
 0000:0000F65C       meas_get_gain_adj
 0000:0000F6E4       cal_update_cap_gain_accu
 0000:0000F7CC       cal_update_ac_gain_accu
 0000:0000F8AC       cal_ac_factor_update_and_save
 0000:0000F9B4       cal_calc_gain_from_gain_accu
 0000:0000FAFC       cal_set_curr_gain_div_by_n
 0000:0000FB16       cal_set_curr_gain_div_by_50000
 0000:0000FB3C       call_set_curr_gain_div_by_30000
 0000:0000FB5C       cal_set_curr_gain_div_by_10000
 0000:0000FB76       cal_set_curr_gain_div_by_6000
 0000:0000FB90       cal_set_curr_gain_div_by_42426
 0000:0000FBB4       meas_setup_hw
 0000:0000FC34       meas_hw_set_ac_rms_filter_ctl
 0000:0000FD18       meas_hw_set_hv_diode
 0000:0000FD5C       meas_hw_set_va_ctl_useless
 0000:0000FD84       meas_hw_set_temp_ctl
 0000:0000FD9E       meas_hw_set_fre_ctl
 0000:0000FDC8       meas_hw_turn_on_4V_supply
 0000:0000FDDC       meas_hw_set_amp_amplifier_power
 0000:0000FE48       meas_hw_set_amp_x10
 0000:0000FEEC       rtc_read_time
 0000:000100B4       bcd2_to_int
 0000:000100D8       int_to_bcd2
 0000:00010106       rtc_write_time
 0000:00010154       rtc_write_reg
 0000:0001018A       rtc_read_reg
 0000:000101AC       rtc_send_reg_number
 0000:000101F8       rtc_recv_data
 0000:0001025C       rtc_send_data
 0000:000102A8       rtc_select_chip
 0000:000102BE       rtc_deselect_chip
 0000:000102D4       rtc_config_data_output
 0000:000102FE       rtc_config_data_input
 0000:00010340       get_days_in_month_without_going_over
 0000:0001036E       get_days_in_month
 0000:000103D4       num
 0000:00010460       fp_compare_c_ge
 0000:00010484       fp_compare_c_le
 0000:000104A8       fp_to_uint
 0000:000104CC       fp_mul
 0000:000105A4       check_on_batt_and_internal_temp
 0000:000105DE       read_batt_level
 0000:000106B0       batt_level_avg
 0000:00010786       batt_level_avg_sort_buf
 0000:00010824       batt_level_adjust
 0000:000108B0       prob_read_adc1_ch
 0000:0001091A       prob_read_internal_temp
 0000:00010956       calc_internal_temp
 0000:00010BB8       calc_internal_temp_core
 0000:00010C80       temp_conv_c_to_f
 0000:00010D4A       meas_calc_temp_from_dcmv
 0000:00010E02       temp_load_offset
 0000:00010EDE       init_adc_and_stuff
 0000:00010F58       adc
 0000:00010FCC       lcd_set_fcr_and_cr
 0000:00011012       lcd_set_enable
 0000:0001101A       lcd_wait_for_FCR_sync
 0000:00011036       lcd_set_segment_multiplexing
 0000:0001103E       lcd_set_pulse_on_duration
 0000:00011056       lcd_set_dead_time
 0000:0001106E       lcd_set_blink
 0000:0001108A       lcd_set_contrast_reg
 0000:000110A2       set_lcd_update_request
 0000:000110AA       read_lcd_sr
 0000:000110DC       apo_config_rcc
 0000:0001113A       set_hse_bits
 0000:0001114A       wait_for_hse_ready
 0000:0001118A       set_MSI_range
 0000:000111A2       set_HSI_ON
 0000:000111AC       set_lse_bits
 0000:000111BC       set_RCC_LSION
 0000:000111C6       set_system_clock_source
 0000:000111DE       read_RCC_curr_clock_source
 0000:000111EA       get_sys_clock_info
 0000:000112F4       set_internal_rtc_and_lcd_clocksource
 0000:00011330       set_RCC_CSR_RTCEN
 0000:00011338       set_RCC_CSR_RTCRST
 0000:00011340       set_AHB_periph_clk
 0000:0001135E       set_APB2_periph_clock
 0000:0001137C       set_APB1_periph_clock
 0000:0001139A       reset_apb2_periph
 0000:000113B8       read_clock_ready_bit
 0000:0001146A       config_clock_interrupts_and_gpio
 0000:0001150E       set_clocks_and_power_periphs
 0000:00011586       enable_internal_rtc_and_lcd_clk
 0000:000115BA       power_all_gpio_banks
 0000:000115C6       power_off_all_gpio_banks
 0000:000115D2       probably_something_with_interrupts
 0000:0001164A       gpio_config_meter_hardware
 0000:000118AE       gpio_config_switch_button_inputs
 0000:00011950       gpio_config_jack_detector_inputs
 0000:00011978       bt_powerup
 0000:00011A4E       gpio_config_analog_inputs
 0000:00011A96       config_TIM2
 0000:00011AE4       config_TIM3
 0000:00011B32       apo_prepare_to_turn_off
 0000:00011B94       apo_unset_gpios
 0000:00011C2C       apo_something_with_rangeswitch
 0000:00011DBA       one_hot_16bit
 0000:00011E62       identity_if_lt_16
 0000:00011EFC       apo_sleep_HY
 0000:00011F18       lcd_shutdown
 0000:00011F3E       apo_disable_timers
 0000:00011F64       bt_shutdown
 0000:00011F98       powerdown_adc1
 0000:00011FB0       mask
 0000:00011FB8       disable_PWR_voltage_detector
 0000:00011FC2       apo_config_rcc_power_stuff
 0000:00011FEC       apo_something_with_power
 0000:00012024       apo_disable_oscillators
 0000:0001203A       apo_power_off_gpio
 0000:000120D4       TIM
 0000:00012100       gpio_config_pin
 0000:000121A4       gpio_clear_config
 0000:000121BC       set_gpio_pin_func
 0000:00012244       cal_save_to_sd
 0000:00012438       cal_load_from_sd
 0000:00012654       log_flush_samples_from_eeprom
 0000:000126CE       log_try_flush_samples_from_eeprom
 0000:0001289A       log_file_open_and_seek
 0000:0001292C       log_start_new_link
 0000:0001294C       log_file_create
 0000:000129C2       log_file_get_name_then_create
 0000:00012A3C       maybe_find_last_log_file_chain)link
 0000:00012B98       log_file_name_add_chain_link_num
 0000:00012C28       bytes_written
 0000:00012C30       path
 0000:00012C34       bytes_read
 0000:00012C3C       log_file_build_name
 0000:00012D0A       log_write_samples_to_file
 0000:00012DB4       fp
 0000:00012DB8       log_file_prepare_to_write_next_sample
 0000:00012FE4       log_file_write_sample
 0000:000133F4       f_get_len
 0000:000133FC       log_write_num_then_comma
 0000:0001342C       log_write_mode
 0000:0001345A       log_write_unit
 0000:00013714       log_file_write_header_lines
 0000:000137C0       log_file_write_header_line4
 0000:00013824       log_file_write_header_line5
 0000:00013896       log_file_write_header_line2
 0000:000138D6       log_file_write_header_line1
 0000:00013928       log_write_footer
 0000:00013B70       log_file_write_header_line3
 0000:00013BC2       log_write_measurement
 0000:00013BF6       write_log_token
 0000:0001490A       write_bytes_to_log_file_and_cache_them_too
 0000:00014994       bytes
 0000:000149B4       log_file_reread_and_verify
 0000:00014AA8       uint_to_ascii
 0000:00014AD8       uint_to_ascii_with_point
 0000:00014B40       f_mount_tries
 0000:00014B6E       sd_sub_8014B6E
 0000:00014BAA       sd_sub_8014BAA
 0000:00014CEC       read_amp_lead_pos_then_update
 0000:00014F48       meter_set_amp_leads_incorrect
 0000:00014F52       update_mode_based_on_range_switch
 0000:00015052       meter_incr_mode
 0000:0001524A       meter_update_acv_dcv_mode
 0000:0001526E       meter_enable_acv_dcv_mode
 0000:000152C8       meter_incr_range
 0000:00015388       calc_power_ranges
 0000:0001543C       get_meas_range_from_power_ranges
 0000:0001548E       read_range_switch_then_update
 0000:0001549A       update_mode_based_on_range_switch_if_necessary
 0000:000154B4       read_range_switch
 0000:00015556       update_range_switch_inputs
 0000:00015628       bt_process_rxed_button
 0000:00015748       update_based_on_pressed_buttons
 0000:00015D70       log_playback_mode_stop
 0000:00015DF4       meter_incr_subscr_mode
 0000:000160F0       cal_can_be_done
 0000:00016134       cal_start
 0000:000161B4       cal_calc_countdown_timer
 0000:000161FC       meas_enable_auto_hold
 0000:0001626E       meter_incr_min_max_mode
 0000:000162A4       meter_enable_min_max_mode
 0000:000162E4       change_diode_voltage
 0000:0001633C       change_apo_status
 0000:00016384       change_logging_interval
 0000:00016404       change_lcd_contrast
 0000:00016484       change_temp_unit
 0000:000164C8       change_continuity_threshold
 0000:00016540       change_year
 0000:000165EC       change_month_day
 0000:00016740       change_hour_minute
 0000:0001680C       update_last_cal_year_month_and_save
 0000:00016848       change_meter_serial
 0000:00016984       change_burden_enabled_for_current_ranges
 0000:00016A1A       change_burden_enabled_for_power_ranges
 0000:00016ABC       update_based_on_held_buttons
 0000:00016DD4       change_logging_enabled
 0000:00016E4C       setup_menu_button_pressed
 0000:00017044       read_buttons_then_update
 0000:00017064       update_based_on_buttons
 0000:000170C4       read_buttons
 0000:00017288       button_auto_press_up_down
 0000:00017358       button_hold_is_being_held_with_mem
 0000:00017388       exactly_one_range_is_active
 0000:000173C4       hold_and_mem_are_both_being_pressed
 0000:000173D6       read_button_inputs
 0000:00017544       fp_from_int
 0000:00017558       fp_from_uint
 0000:0001755C       fp_from_uint_core
 0000:00017576       read_bss_table_and_zero
 0000:00017598       fp_div
 0000:00017694       fp_to_int
 0000:000176D8       unlock_data_eeprom
 0000:000176F8       lock_data_eeprom
 0000:0001770A       try_write_byte_to_eeprom_without_first_erasing
 0000:00017744       unlock_option_bytes_and_data_eeprom
 0000:0001776A       reload_option_bytes
 0000:0001777C       probably_reprogram_brownout_level_or_otherwise_init_options
 0000:000177CA       get_brownout_level_from_option_bytes
 0000:000177D6       set_flash_sr
 0000:000177DC       get_flash_status
 0000:0001783C       wait_for_flash_to_not_be_busy
 0000:00017878       config_usart
 0000:00017968       set_usart_enable
 0000:00017984       usart_write_data_reg
 0000:00017994       set_usart_control_bit
 0000:000179EA       get_usart_status_bits
 0000:00017A9C       hy_read_update_and_do_cap_stuff
 0000:00017AC6       hy_read_regs_and_process_ints
 0000:00017B5C       hy_process_AD1_int
 0000:00017C70       hy_get_AD1
 0000:00017CBA       hy_add_to_AD1_avg
 0000:00017D6C       meas_calc_final_scr_digits
 0000:00017E2A       meas_calc_bargraph_digits
 0000:00017E94       meas_process_lowz
 0000:00017EAC       meter_process_new_lowz_meas
 0000:00017F78       set_lowz_acdc_switch_counter
 0000:00017F96       meas_process_ac_amps
 0000:000180AE       prepare_reading_ac_amps
 0000:00018110       meas_process_ac_amps_core
 0000:000182D6       meas_display_ac_amps
 0000:000182F0       meas_process_acmv
 0000:000183C2       meas_display_acv_acmv
 0000:000183FC       meas_process_acv
 0000:00018550       data
 0000:00018554       a1
 0000:00018568       meas_apply_ac_freq_dependent_offset
 0000:00018624       cal_save_scr_to_ac_factor
 0000:000186FC       meas_calc_ac_freq_dependent_offset
 0000:000187D0       meas_calc_acv_subscr_vals
 0000:00018830       meas_process_dcv
 0000:0001890C       digits
 0000:00018920       meas_process_dcmv
 0000:00018964       meas_process_temp
 0000:000189DC       meas_process_continuity
 0000:000189F8       meas_do_continuity
 0000:00018A58       meas_calc_beep_threshold
 0000:00018AD4       meas_process_ohms
 0000:00018BF8       meas_ohms_calc_5M_offset
 0000:00018DA6       meas_ohms_calc_50M_offset
 0000:00018EEC       meas_process_diode
 0000:00019000       meas_process_dc_amps
 0000:0001910C       prepare_reading_dc_amps
 0000:0001916A       meas_process_dc_amps_core
 0000:00019204       hy_process_RMS_int
 0000:00019268       hy_read_rms_data_from_buf
 0000:000192C4       hy_update_rms_avg
 0000:00019340       meas_add_rolling_average_buf1
 0000:00019456       meas_calc_bargraph_digits_ac
 0000:00019490       meas_process_dc_va
 0000:0001978C       meas_process_ac_va
 0000:00019A64       update_power_volts
 0000:00019B2C       update_power_amps
 0000:00019C5C       calc_va_subscr_digits
 0000:00019D00       rms_int_in_lowz_does_nothing
 0000:00019D08       nullsub_1
 0000:00019D0A       meas_acv_dcv_calc_next_mode
 0000:00019D5C       meas_acv_dcv_switch_mode
 0000:00019E20       meas_acv_dcv_calc_distance_between_ac_and_dc_as_if_they_were_vectors_90_degrees_apart
 0000:00019EC4       meas_calc_dBm
 0000:00019FC4       nullsub_2
 0000:00019FC6       nullsub_3
 0000:00019FC8       hy_process_peak_hold
 0000:0001A1D8       hy_process_CT_int
 0000:0001A32C       hy_read_freq_counters_and_reset
 0000:0001A3EC       meas_process_hz
 0000:0001A6B8       b
 0000:0001A6BC       meas_calc_hz_digits
 0000:0001A828       meas_process_msec
 0000:0001A9C8       meas_set_msec_range_and_digits
 0000:0001AA5C       meas_process_duty
 0000:0001AAB8       meas_process_cap
 0000:0001AC74       meas_process_cap_autorange
 0000:0001ACE8       meas_calc_curr_freq
 0000:0001AD58       meas_calc_msec
 0000:0001ADA8       meas_calc_duty
 0000:0001ADCC       cal_update_sysclk
 0000:0001AE30       meas_add_rolling_average_buf2
 0000:0001AF6C       meas_process_burden_volts
 0000:0001B050       config_hy_based_on_mode_range
 0000:0001B070       hy_set_regs_from_table
 0000:0001B4E0       config_hy_intregs
 0000:0001B5B8       hy_reset_freq_counter
 0000:0001B66C       send_data_to_hy3131
 0000:0001B6EC       read_registers_from_hy3131
 0000:0001B764       recv_byte_from_hy3131
 0000:0001B798       send_byte_to_hy3131
 0000:0001B7E8       pulse_hy3131_clock
 0000:0001B8A8       int64_div
 0000:0001B8EC       uint64_div
 0000:0001B9DC       meas_calc_ac_freq_dependent_offset_core
 0000:0001BEB6       meas_calc_ac_freq_dependent_offset_core_for_ACV_5_50V
 0000:0001C34C       ac_input_freq_to_hz
 0000:0001C384       fp_equals
 0000:0001C3A0       dp_from_fp
 0000:0001C3F0       dp_add
 0000:0001C4D8       dp_to_int
 0000:0001C504       dp_to_int_core
 0000:0001C524       dp_div
 0000:0001C76C       fp_from_dp
 0000:0001C7FC       reset_adc
 0000:0001C81C       do_lots_of_adc_config
 0000:0001C86C       enable_adc
 0000:0001CA62       and_bool_low16
 0000:0001CAC0       dp_mul
 0000:0001CC64       fp_add
 0000:0001CCE8       fp_sub
 0000:0001CDD0       set_rtc_rcc_csr_access
 0000:0001CDD8       set_PWR_voltage_detector_enable
 0000:0001CDE0       set_PWR_Vrefint_off_in_low_power_mode
 0000:0001CDE8       set_most_pwr_cr_bits
 0000:0001CE00       WFI_or_WFE
 0000:0001CE3C       test_pwr_csr_bits
 0000:0001CE56       set_pwr_cr_bits_offset
 0000:0001CEA0       set_SCB_AIRCR
 0000:0001CF14       set_vtor_offset
 0000:0001CF3C       TIM_Base_SetConfig
 0000:0001CFA0       set_timer_enable
 0000:0001CFD2       TIM_clear_status_bits
 0000:0001CFDC       apo_something_with_rtc
 0000:0001D184       exti_int_pending
 0000:0001D19E       exti_ack_int
 0000:0001D1B8       memcpy
 0000:0001D1D4       memset
 0000:0001D1EA       memcmp
 0000:0001D20E       chr_in_str
 0000:0001D29A       prob_sd_init_partition_table
 0000:0001E214       str
 0000:0001E22C       f_open
 0000:0001E3D2       f_read
 0000:0001E5DE       f_write
 0000:0001E820       f_sync_prob
 0000:0001E8E4       f_close
 0000:0001E900       f_seek
 0000:0001EBD4       HAL_SD_Init
 0000:0001ECE2       SD_PowerON
 0000:0001EF2E       turn_off_sd_card
 0000:0001EF3E       SD_Initialize_Cards
 0000:0001F0E0       HAL_SD_GetCardInfo
 0000:0001F578       SD_Select_Deselect
 0000:0001F5B0       HAL_SD_ReadBlocks
 0000:0001F6D0       result
 0000:0001F6D8       cmd
 0000:0001F6E4       prob_write_sd_block
 0000:0001F9A2       sd_stop_transmission
 0000:0001F9EC       sd_get_status
 0000:0001FA5A       SDIO_interrupt_real
 0000:0001FB08       DMA2_CH4_interrupt_real
 0000:0001FC00       SD_CmdResp1Error
 0000:0001FD8C       wait_for_sd_cmd_resp
 0000:0001FEC8       sd_switch_some_kind_of_func
 0000:0002027C       strlen
 0000:000202B4       disable_sd_card_hw
 0000:00020332       HAL_SD_MspInit
 0000:00020434       sdio_something
 0000:000204B8       dp_from_int
 0000:000204CC       dp_from_uint
 0000:000204D0       dp_from_uint_core
 0000:000204E8       dp_sqrt
 0000:000205D8       fp_from_int64
 0000:0002063A       dp_log10
 0000:00020644       dp_sub
 0000:000207D6       isnt_zero
 0000:00020820       prob_write_sd_blocks
 0000:000208D8       reset_sdio_periph
 0000:000208F0       something_gnarly_with_sdio_clk
 0000:0002091A       HAL_set_sdio_clken
 0000:00020922       set_sdio_power_reg
 0000:00020928       sdio_power_enabled
 0000:00020932       sdio_sub_8020932
 0000:0002093A       SDIO_SendCommand
 0000:00020962       get_sdio_respcmd
 0000:0002096A       read_resp_word
 0000:00020980       SDIO_DataConfig
 0000:000209AE       read_sdio_fifo
 0000:000209B4       set_sdio_mask
 0000:000209D2       get_sdio_sta
 0000:000209EC       set_sdio_icr
 0000:000209F2       get_sdio_sta_0
 0000:00020A0C       set_sdio_icr_0
 0000:00020ADC       fp_set_nan_error
 0000:00020AE8       dp_log_core
 0000:00020DC0       fp_get_last_error_ptr
 0000:00020DCC       dp_normalize
 0000:00020E10       dp_something_0_0
 0000:00020E40       nullsub_4
 0000:00020E50       TIM2_interrupt
 0000:0002123A       TIM3_interrupt
 0000:000212C4       USART2_interrupt
 0000:0002136C       SysTick_Handler
 0000:00021374       SDIO_interrupt
 0000:0002137C       DMA2_CH4_interrupt
 0000:00021384       RTC_WKUP_interrupt
 0000:000213A4       EXTI0_interrupt
 0000:000213B8       EXTI1_interrupt
 0000:000213CC       EXTI2_interrupt
 0000:000213E0       EXTI3_interrupt
 0000:000213F4       EXTI4_interrupt
 0000:00021408       EXTI_9_5_interrupt
 0000:00021464       EXTI_15_10_interrupt
 0000:000214E0       ADC1_interrupt
 0000:000215F0       main_loop
 0000:0002179C       load_stuff_from_eeprom_and_init
 0000:00021872       apo_do_poweroff_then_poweron
 0000:00021968       max_digits_in_range_tbl
 0000:00021C24       temp_range_offset_factor_tbl
 0000:00021E9C       SystemInit
 0000:00021EEE       setup_system_from_reset_continued
 0000:00022010       hy_regtbl_ohms
 0000:0002209C       hy_regtbl_cap
 0000:00022114       cal_ohms_50M_factor_tbl
 0000:0002217C       hy_regtbl_dcv
 0000:000221E0       hy_regtbl_acv_1ms_peak
 0000:00022244       hy_regtbl_acv
 0000:00022294       mcafdoc_corr_tbl_acmv50
 0000:000222DC       mcafdoc_corr_tbl_acmv500
 0000:00022324       mcafdoc_ac_corr_tbl_acv5
 0000:000223B4       mcafdoc_ac_corr_tbl_acv50
 0000:00022444       batt_level_offset_factor_tbl
 0000:00022484       hy_regtbl_ac_amps
 0000:000224C0       hy_regtbl_dc_amps
 0000:000224FC       internal_temp_offset_factor_tbl
 0000:00022534       mcafdoc_corr_tbl_acv500
 0000:0002256C       mcafdoc_corr_tbl_acv600
 0000:000225A4       mcafdoc_corr_tbl_acuA
 0000:000225DC       mcafdoc_corr_tbl_acmA
 0000:00022614       cal_factor_eeloc_tbl
 0000:00022648       hy_regtbl_dcmv
 0000:00022670       hy_regtbl_acmv
 0000:00022698       hy_regtbl_acmv_1ms_peak
 0000:000226C0       hy_regtbl_diode
 0000:000226E8       hy_regtbl_freq
 0000:00022710       call_funcs_in_init_func_table
 0000:00022738       mcafdoc_infreq_tbl_100khz
 0000:0002275C       mcafdoc_ac_infreq_tbl_20khz
 0000:00022780       mcafdoc_ac_infreq_tbl_100khz
 0000:000227A4       init_func_table
 0000:000227C8       ascii_to_segs_tbl_uppercase
 0000:000227E4       ascii_to_segs_tbl_lowercase
 0000:00022800       mcafdoc_infreq_tbl_10khz
 0000:00022832       should_call_funcs_in_init_func_table
 0000:00022836       unused_sub_8022836
 0000:00022848       unused_sub_8022848
 0000:0002285C       hy_regtbl_continuity
 0000:00022880       reset_vector
 0000:00022890       ascii_to_segs_tbl_digits
 0000:0002289C       days_in_month_tbl
 0000:000228BC       aApoon
 0000:000228C4       aApoof
 0000:000228CC       aBdon
 0000:000228D4       aBdoff
 0000:000228DC       a15
 0000:000228E4       a3
 0000:000228EC       aDn30
 0000:000228F4       aUp30
 0000:000228FC       aDn300
 0000:00022904       aUp300
 0000:0002290C       aOffE
 0000:00022914       aGEnd
 0000:0002291C       a400E
 0000:00022924       a5kend
 0000:0002292C       aSdcal
 0000:00022934       aSdsav
 0000:0002293C       aSdset
 0000:00022944       aSaved
 0000:0002294C       aErr
 0000:00022954       aCal1
 0000:0002295C       aCal
 0000:00022964       aOfl
 0000:0002296C       aOpen
 0000:00022974       aLead
 0000:0002297C       aCal_bin
 0000:00022A30       ram_init_data
 0000:00000000       ranges_in_mode
 0000:0000001C       AHB_APB_PrescTable
 0000:0000002C       aInterval_0
 0000:00000038       aOverflow_2
 0000:00000044       aOverflow_1
 0000:00000050       aMain_0
 0000:0000005C       aSub1_0
 0000:00000068       aSub2_0
 0000:00000074       aPeakhold_0
 0000:00000080       PLLMulTable
 0000:0000008C       aStart_0
 0000:00000094       aSec_0
 0000:0000009C       aMax_0
 0000:000000A4       aMin_0
 0000:000000AC       aRemark_0
 0000:000000B4       aNo__0
 0000:000000BC       aFunc__0
 0000:000000C4       aValue_0
 0000:000000CC       aUnit_0
 0000:000000D4       aLowz_0
 0000:000000DC       aAcv_0
 0000:000000E4       aDcv_0
 0000:000000EC       aDcmv_0
 0000:000000F4       aAcmv_0
 0000:000000FC       aTemp__0
 0000:00000104       aFreq__0
 0000:0000010C       aPulse_0
 0000:00000114       aDuty_0
 0000:0000011C       aOhm_1
 0000:00000124       aBeep_0
 0000:0000012C       aDiode_0
 0000:00000134       aCap__0
 0000:0000013C       aUva_0
 0000:00000144       aMva_0
 0000:0000014C       aAcua_0
 0000:00000154       aDcua_0
 0000:0000015C       aAcma_0
 0000:00000164       aDcma_0
 0000:0000016C       aAca_0
 0000:00000174       aDca_0
 0000:0000017C       aDcuva_0
 0000:00000184       aDcmva_0
 0000:0000018C       aDcva_0
 0000:00000194       aBurden_0
 0000:0000019C       aKhz_0
 0000:000001A4       aMsec_0
 0000:000001AC       aOhm_2
 0000:000001B4       aKohm_0
 0000:000001BC       aMohm_0
 0000:000001C4       a1khz_0
 0000:000001CC       aAcdc_1
 0000:000001D8       aId_0
 0000:000001DC       aVa_0
 0000:000001E0       aMv_0
 0000:000001E4       aV_0
 0000:000001E8       aUa_0
 0000:000001EC       aMa_0
 0000:000001F0       aA_0
 0000:000001F4       aC_0
 0000:000001F8       aF_0
 0000:000001FC       aHz_0
 0000:00000204       aNf_0
 0000:00000208       aUf_0
 0000:0000020C       hy_CTA_initial_val
 0000:00000210       fp_last_error
 0000:00000218       curr_logging_interval
 0000:0000021A       sys_boot_button_delay_timer_1ms_unit
 0000:0000021C       apo_timeout_sec
 0000:0000021E       subscr_mode_for_last_units
 0000:0000021F       amp_lead_pos_debounce_timer
 0000:00000220       last_range_switch_bits
 0000:00000221       rtc_last_read_seconds
 0000:00000222       curr_lcd_contrast
 0000:00000223       meter_mode_range_change_delay
 0000:00000224       lowz_acdc_switch_timer
 0000:00000225       lowz_active_lockout_timer
 0000:00000228       sd_cal_buf
 0000:00002B68       f_file_structure
 0000:00002FB0       sd_readback_buf
 0000:000031B0       meas_ara1_buf
 0000:00003340       meas_ara2_buf
 0000:00003528       batt_level_avg_buf
 0000:00003578       batt_level_avg_buf_sorted
 0000:000035C8       segment_buffer_C0L
 0000:000035CC       segment_buffer_C0H
 0000:000035D0       segment_buffer_C1L
 0000:000035D4       segment_buffer_C1H
 0000:000035D8       segment_buffer_C2L
 0000:000035DC       segment_buffer_C2H
 0000:000035E0       segment_buffer_C3L
 0000:000035E4       segment_buffer_C3H
 0000:00003608       hy_regs_buf
 0000:00003648       bt_buf
 0000:000036D0       sdio_dword_200036D0
 0000:000036D4       sdio_dword_200036D4
 0000:000036D8       sdio_dword_200036D8
 0000:000036DC       sdio_dword_200036DC
 0000:000036E0       sdio_dword_200036E0
 0000:000036E4       sdio_dword_200036E4
 0000:000036E8       bt_rx_buf
 0000:000036FC       bt_rx_msg
 0000:00003710       curr_internal_temp_avg_buf
 0000:00003724       sd_cmd_temp
 0000:00003738       log_file_name
 0000:00003756       uint_to_ascii_unused_0
 0000:00003757       uint_to_ascii_unused
 0000:00003758       sd_resp_csd
 0000:00003768       sd_resp_cid
 0000:00003778       cal_dcva_volts_accu
 0000:00003780       cal_dcva_amps_accu
 0000:00003788       cal_acva_volts_accu
 0000:00003790       cal_acva_amps_accu
 0000:0000379D       uint_to_ascii_with_point_unused
 0000:0000379E       uint_to_ascii_with_point_unused_0
 0000:0000379F       uint_to_ascii_with_point_unused_1
 0000:000037A0       scr_msg_tmp
 0000:000037A8       cal_curr_gain_accu
 0000:000037B0       curr_freq_in_millihz
 0000:000037B8       curr_msec_val
 0000:000037C0       meas_ohms_50M_offset_val
 0000:000037C4       C50MO_frac_into_range
 0000:000037C8       C50MO_digits_in_cal_range
 0000:000037CC       C50MO_range_start
 0000:000037D0       C50MO_range_stop
 0000:000037D4       meas_diode_last_digits
 0000:000037D8       meas_ara1_last
 0000:000037DC       cap_offset_temp
 0000:000037E0       log_curr_filename_ptr
 0000:000037E8       log_file_name_number
 0000:000037EC       f_bytes_read_temp
 0000:000037F0       f_bytes_written_temp
 0000:000037F4       log_file_start_pos
 0000:000037F8       log_file_curr_pos
 0000:000037FC       log_file_total_len
 0000:00003804       current_brownout_level
 0000:00003808       SysTickTimer
 0000:0000380C       curr_meter_serial
 0000:00003810       edit_meter_serial
 0000:00003814       log_rdsamp_C_main_measurement
 0000:00003818       log_rdsamp_F_ex_volt_value
 0000:0000381C       log_rdsamp_I_ex_amp_value
 0000:00003820       log_prsamp_C_main_measurement
 0000:00003824       log_prsamp_F_ex_volt_value
 0000:00003828       log_prsamp_I_ex_amp_value
 0000:0000382C       log_successful_flushes
 0000:00003830       log_total_samples
 0000:00003834       log_file_total_samples_written
 0000:00003838       log_samples_in_eeprom_that_need_flushing
 0000:0000383C       log_file_total_samples_written_backup
 0000:00003850       curr_cal_factor_eeloc
 0000:00003854       max_digits_in_range
 0000:00003858       curr_scr_digits
 0000:0000385C       curr_bargraph_digits
 0000:00003860       hy_curr_AD1
 0000:00003864       hy_curr_rms_data
 0000:00003868       meas_va_last_volts
 0000:0000386C       meas_va_last_amps
 0000:00003870       ac_input_freq
 0000:00003874       meter_min_max_maxval
 0000:00003878       meter_min_max_minval
 0000:0000387C       meter_min_max_avg
 0000:00003880       meter_min_max_avg_diff
 0000:00003884       meter_min_max_avg_count
 0000:00003888       hold_last_value_for_auto
 0000:0000388C       rel_meas_rel_val
 0000:00003890       disp_bcd_tmp
 0000:000038A4       curr_hy_INTF
 0000:000038A8       hy_curr_AD1_unsigned
 0000:000038AC       hy_curr_AD1_internal
 0000:000038B0       hy_ad1_avg_sum
 0000:000038B4       hy_AD1_avg
 0000:000038B8       hy_RMS_DATA_lsb
 0000:000038BC       hy_RMS_DATA_msb
 0000:000038C0       hy_rms_data
 0000:000038C4       hy_rms_avg_accu
 0000:000038C8       hy_rms_avg_val
 0000:000038CC       hy_PKHMIN
 0000:000038D0       hy_PKHMAX
 0000:000038D4       hy_last_PKHMIN
 0000:000038D8       meas_ara2_last
 0000:000038DC       cal_offset_val_unused
 0000:000038E0       cal_curr_offset_val
 0000:000038E4       cal_curr_offset_accu_div_by_16_never_read
 0000:000038E8       cal_ac_offset_temp_result
 0000:000038EC       curr_amp_rel
 0000:000038F0       cal_curr_gain_val
 0000:000038F4       cal_ohms_50M_offset_factor
 0000:000038F8       hy_sysclk_in_decihz
 0000:000038FC       cal_curr_offset_accu
 0000:00003900       cal_curr_gain_accu_float
 0000:00003904       cal_curr_offset_va_volts
 0000:00003908       cal_curr_offset_va_amps
 0000:0000390C       cal_curr_gain_va_volts
 0000:00003910       cal_curr_gain_va_amps
 0000:00003914       curr_duty_val
 0000:00003918       hy_ctr_gate_time
 0000:0000391C       hy_curr_CTA_gate_time
 0000:00003920       hy_curr_CTB_freqdata
 0000:00003924       hy_curr_CTC_duty
 0000:00003928       hy_ctr_cyc_elapsed
 0000:0000392C       cal_ac_factor_decirange
 0000:00003930       cal_ac_factor_fullrange
 0000:00003934       cal_ac_factor_decirange_lf
 0000:00003938       cal_ac_factor_fullrange_lf
 0000:0000393C       curr_ac_offset
 0000:00003940       ac_input_freq_acv
 0000:00003944       ac_input_freq_lowz
 0000:00003948       curr_cap_val
 0000:0000394C       burden_last_volts
 0000:0000395C       temp_offset
 0000:00003960       temp_meas_val
 0000:00003964       temp_meas_val_base
 0000:00003968       temp_meas_val_in_f
 0000:0000396C       peakhold_max_value
 0000:00003970       peakhold_min_value
 0000:00003974       curr_subscr_dBm
 0000:00003978       curr_subscr_digits
 0000:0000397C       meas_acv_dcv_dc_value
 0000:00003980       meas_acv_dcv_ac_value
 0000:00003984       meas_acv_dcv_dc_value_squared
 0000:00003988       meas_acv_dcv_ac_value_squared
 0000:0000398C       meter_power_volts
 0000:00003990       meter_power_amps
 0000:00003994       meter_power_amps_uVA_precise
 0000:00003998       sdio_dword_20003998
 0000:000039A0       sdio_dword_200039A0
 0000:000039A4       sdio_dword_200039A4
 0000:000039B0       TIM2_prepare_sample_timer_100ms
 0000:000039B4       TIM2_500ms_timer
 0000:000039B8       apo_timeout_subtimer_10ms
 0000:000039BC       bt_packet_write_timer_250ms
 0000:000039C0       mcafdoc_result_offset
 0000:000039C4       mcafdoc_ac_input_hz
 0000:000039C8       mcafdoc_corr_val
 0000:000039CC       mcafdoc_freq_range_size
 0000:000039D0       mcafdoc_freq_dist_into_range
 0000:000039D4       mcafdoc_corr_val_decirange
 0000:000039D8       mcafdoc_corr_val_fullrange
 0000:000039DC       mcafdoc_corr_digits_decirange
 0000:000039E0       mcafdoc_corr_digits_fullrange
 0000:000039E4       mcafdoc_freq_range_hi
 0000:000039E8       mcafdoc_freq_range_lo
 0000:000039EC       mcafdoc_digits_decirange
 0000:000039F0       mcafdoc_decirange_factor
 0000:000039F4       mcafdoc_fullrange_factor
 0000:000039F8       mcafdoc_is_always_zero
 0000:000039FC       mcafdoc_frac_into_range
 0000:00003A00       mcafdoc_corr_in_range
 0000:00003A04       mcafdoc_ac_what
 0000:00003A08       mcafdoc_ac_fullrange_factor_diff
 0000:00003A0C       mcafdoc_ac_decirange_factor_diff
 0000:00003A10       mcafdoc_ac_corr_factor
 0000:00003A14       mcafdoc_ac_corr_factor_lf
 0000:00003A18       mcafdoc_ac_range_diff
 0000:00003A1C       mcafdoc_ac_digits_into_range
 0000:00003A20       mcafdoc_ac_amt_digits_into_range
 0000:00003A24       mcafdoc_ac_decirange_factor_lf_digits
 0000:00003A28       mcafdoc_ac_range_hi
 0000:00003A2C       mcafdoc_ac_range_lo
 0000:00003A30       mcafdoc_ac_range_lf_hi
 0000:00003A34       mcafdoc_ac_range_lf_lo
 0000:00003A38       mcafdoc_ac_corr_val_lo
 0000:00003A3C       mcafdoc_ac_corr_val_hi
 0000:00003A40       mcafdoc_ac_result
 0000:00003A44       mcafdoc_corr_val_diff
 0000:00003A48       mcafdoc_ac_infreq_frac_into_range
 0000:00003A4C       curr_log_cache_pos
 0000:00003A4E       batt_really_is_low_timer
 0000:00003A52       last_cal_year_month
 0000:00003A54       log_playback_pos
 0000:00003A56       log_playback_window_end
 0000:00003A58       log_playback_window_start
 0000:00003A5A       log_playback_window_len
 0000:00003A5C       log_samples_in_eeprom
 0000:00003A5E       edit_logging_interval
 0000:00003A60       logging_interval_timer_1s
 0000:00003A62       log_playback_mode_timeout
 0000:00003A64       log_file_chain_idx
 0000:00003A66       TIM2_auto_hold_unhold_timer_1s
 0000:00003A68       beep_timer_1ms
 0000:00003A6A       beep_time
 0000:00003A6C       backlight_related_var_maybe_auto_timeout_unused
 0000:00003A6E       curr_batt_charge
 0000:00003A70       batt_level_avg_count
 0000:00003A72       cal_internal_thermistor_factor
 0000:00003A74       freq_input_timeout_timer_10ms_unit
 0000:00003A76       hy_change_CTA_val_timer
 0000:00003A78       mes_cap_no_reading_timeout_timer_10ms_unit
 0000:00003A7A       meas_cap_some_other_timer_unused
 0000:00003A7C       curr_burden_voltage
 0000:00003A7E       curr_internal_temperature
 0000:00003A80       curr_internal_temp_adc
 0000:00003A82       curr_internal_temp_avg
 0000:00003A84       curr_adc_val_for_batt_level_and_internal_temp
 0000:00003A86       curr_internal_temp_avg_count
 0000:00003A88       curr_internal_temp_invalid_timer
 0000:00003A8A       subscr_power_v_a_switch_timer
 0000:00003A8C       amp_lead_pos_last
 0000:00003A8D       range_switch_unbounce_timer
 0000:00003A8E       range_switch_bounce_timer
 0000:00003A8F       autoranging_was_disabled_before_rel_meas_was_enabled
 0000:00003A90       button_delay_flag
 0000:00003A91       button_debounce_timer
 0000:00003A92       last_button_input
 0000:00003A93       button_delay_buttons
 0000:00003A94       button_repress_fast_counter
 0000:00003A95       button_repress_counter
 0000:00003A96       f_op_err
 0000:00003A97       log_first_byte_of_vol_path_str
 0000:00003A98       log_second_byte_of_vol_path_str_never_read
 0000:00003A99       log_flush_samples_from_eeprom_try_counter
 0000:00003A9A       autorange_overflowed_last_time
 0000:00003A9B       bat_is_low
 0000:00003A9C       came_from_standby
 0000:00003A9D       logging_active
 0000:00003A9E       logging_interval_elapsed
 0000:00003A9F       maybe_logging_was_active_at_some_point
 0000:00003AA0       log_playback_mode
 0000:00003AA1       log_rdsamp_lowz_measuring_ac
 0000:00003AA2       log_rdsamp_lowz_active_cause_of_enough_volts
 0000:00003AA3       log_rdsamp_input_lpf_enabled
 0000:00003AA4       log_rdsamp_input_1ms_peak_enabled
 0000:00003AA5       log_rdsamp_in_ac_dc_mode
 0000:00003AA6       log_rdsamp_temp_in_c
 0000:00003AA7       logged_meas_mode
 0000:00003AA8       logged_meas_range
 0000:00003AA9       logged_meas_decimal_place
 0000:00003AAA       log_prsamp_A_range_mode
 0000:00003AAB       log_prsamp_B_flags
 0000:00003AAC       log_prsamp_D_ex_volt_range_mode
 0000:00003AAD       log_prsamp_E_ex_volt_flags
 0000:00003AAE       log_prsamp_G_ex_amp_range_mode
 0000:00003AAF       log_prsamp_H_ex_amp_flags
 0000:00003AB0       log_rdsamp_A_range_mode
 0000:00003AB1       log_rdsamp_B_flags
 0000:00003AB2       log_rdsamp_D_ex_volt_range_mode
 0000:00003AB3       log_rdsamp_E_ex_volt_flags
 0000:00003AB4       log_rdsamp_G_ex_amp_range_mode
 0000:00003AB5       log_rdsamp_H_ex_amp_flags
 0000:00003AB6       logging_interval_maxspeed_timer_200ms
 0000:00003AB7       log_start_year
 0000:00003AB8       log_start_month
 0000:00003AB9       log_start_day
 0000:00003ABA       log_start_hour
 0000:00003ABB       log_start_minute
 0000:00003ABC       log_start_second
 0000:00003ABD       log_end_year
 0000:00003ABE       log_end_month
 0000:00003ABF       log_end_day
 0000:00003AC0       log_end_hour
 0000:00003AC1       log_end_minute
 0000:00003AC2       log_end_second
 0000:00003AC3       curr_sys_error
 0000:00003AC4       log_need_to_flush_samples_from_eeprom
 0000:00003AC5       need_to_display_logging_ended
 0000:00003AC6       log_rdsamp_mode
 0000:00003AC7       log_rdsamp_range
 0000:00003AC8       log_rdsamp_ex_volt_mode
 0000:00003AC9       log_rdsamp_ex_volt_range
 0000:00003ACA       log_rdsamp_ex_amp_mode
 0000:00003ACB       log_rdsamp_ex_amp_range
 0000:00003ACC       log_file_starting_new_link
 0000:00003ACD       log_file_is_ending
 0000:00003ACE       log_file_need_to_write_header
 0000:00003AD3       bt_enabled
 0000:00003AD4       bt_rx_buf_curr_pos
 0000:00003AD5       bt_rx_buf_max_pos
 0000:00003AD6       bt_rx_msg_len
 0000:00003AD7       bt_new_received_msg
 0000:00003AD8       bt_buf_cksum
 0000:00003AD9       bt_set_the_time
 0000:00003ADA       bt_rx_checksum_valid
 0000:00003ADB       curr_sub_mode
 0000:00003ADC       apo_woke_up
 0000:00003ADD       curr_apo_off
 0000:00003ADE       apo_trigger_poweroff
 0000:00003ADF       batt_is_low_icon
 0000:00003AE0       curr_meas_mode
 0000:00003AE1       curr_meas_range
 0000:00003AE2       ac_input_freq_range
 0000:00003AE3       curr_scr_decimal_place
 0000:00003AE4       curr_subscr_decimal_loc
 0000:00003AE5       curr_bargraph_bars
 0000:00003AE6       autoranging_disabled
 0000:00003AE7       meter_overflow_was_negative
 0000:00003AE8       curr_scr_overflow
 0000:00003AE9       ac_input_hz_overflow
 0000:00003AEA       scr_overload_displayed
 0000:00003AEB       meter_mode_changed
 0000:00003AEC       meter_range_changed
 0000:00003AED       bargraph_range
 0000:00003AEE       meter_min_max_mode
 0000:00003AEF       manual_hold_is_enabled
 0000:00003AF0       auto_hold_is_enabled
 0000:00003AF1       auto_hold_need_to_unhold
 0000:00003AF2       auto_hold_holding
 0000:00003AF3       mode_range_just_got_changed_for_hold_purposes
 0000:00003AF4       lcd_update_from_auto_hold
 0000:00003AF5       rel_meas_enabled
 0000:00003AF6       rel_meas_got_rel_val
 0000:00003AF7       lcd_needs_update
 0000:00003AF8       autorange_changed_range
 0000:00003AF9       meas_was_updated
 0000:00003AFA       need_to_update_bargraph
 0000:00003AFB       force_new_measurement_available_on_range_mode_change
 0000:00003AFC       scr_need_to_refresh_meas_units_and_icons
 0000:00003AFD       scr_need_to_update_units_in_certain_modes
 0000:00003AFE       need_to_update_subscr
 0000:00003AFF       subscr_need_to_update_units
 0000:00003B00       range_switch_was_switched
 0000:00003B01       curr_range_switch_bits
 0000:00003B02       range_switch_inputs
 0000:00003B03       new_buttons_pressed
 0000:00003B04       new_buttons_held
 0000:00003B05       bt_new_rxed_button
 0000:00003B06       curr_button_input
 0000:00003B07       buttons_pressed
 0000:00003B08       buttons_held
 0000:00003B09       bt_pressed_keycode
 0000:00003B0A       setup_currently_editing
 0000:00003B0B       blink_value_being_edited
 0000:00003B0C       setup_edit_timeout_2min
 0000:00003B0D       setup_serial_selected_digit
 0000:00003B0E       button_hold_timer
 0000:00003B0F       button_check_timer
 0000:00003B10       meter_curr_mode_is_timey_not_used
 0000:00003B11       amp_lead_in_ma_jack_only
 0000:00003B12       meter_amp_leads_incorrect
 0000:00003B13       beep_every_half_second
 0000:00003B14       beep_currently_beeping
 0000:00003B15       beep_num_beeps
 0000:00003B16       backlight_on
 0000:00003B17       hy_cap_related_always_set_to_zero
 0000:00003B18       curr_hy_R20
 0000:00003B19       curr_hy_R29
 0000:00003B1A       curr_hy_pendingints
 0000:00003B1B       hy_ad1_avg_ctr
 0000:00003B1C       hy_AD1_new_avg
 0000:00003B1D       hy_rms_new_avg
 0000:00003B1E       hy_rms_avg_count
 0000:00003B1F       meas_ara1_count
 0000:00003B20       meas_ara2_count
 0000:00003B21       cobait_timer
 0000:00003B22       cal_mode_save_to_sd
 0000:00003B23       cal_mode_load_from_sd
 0000:00003B24       meter_in_cal_mode
 0000:00003B25       setting_last_cal_year_month
 0000:00003B26       calibrating_offset
 0000:00003B27       calibrating_offset_finished
 0000:00003B28       calibrating_gain
 0000:00003B29       calibrating_gain_finished
 0000:00003B2A       calibrating_ohms_50M_offset
 0000:00003B2B       calibrating_400_unused
 0000:00003B2C       calibrating_400_finished_unused
 0000:00003B2D       calibrating_5k_unused
 0000:00003B2E       calibrating_5k_end_unused
 0000:00003B2F       cal_countdown_timer
 0000:00003B30       calibrating_thermistor_23c
 0000:00003B31       cal_switch_to_temp_on_subscr_delay
 0000:00003B32       lowz_measuring_ac
 0000:00003B33       lowz_active_cause_of_enough_volts
 0000:00003B34       some_unused_flag_always_zero
 0000:00003B35       hy_change_CTA_val_next
 0000:00003B36       cal_save_ac_factor_decirange
 0000:00003B37       cal_save_ac_factor_fullrange
 0000:00003B38       cal_save_ac_factor_decirange_lf
 0000:00003B39       cal_save_ac_factor_fullrange_lf
 0000:00003B3A       ac_input_freq_range_acv
 0000:00003B3B       ac_input_freq_range_lowz
 0000:00003B3C       meas_cap_no_reading_timeout_elapsed
 0000:00003B3D       burden_enabled_for_current_ranges
 0000:00003B3E       edit_burden_enabled_for_current_ranges
 0000:00003B3F       burden_overflow
 0000:00003B40       burden_enabled_for_power_ranges
 0000:00003B41       edit_burden_enabled_for_power_ranges
 0000:00003B42       burden_active_msg_showing_timer_1s
 0000:00003B43       temp_in_c
 0000:00003B44       curr_internal_temp_invalid
 0000:00003B45       temp_meas_sign
 0000:00003B46       there_was_a_temp_error
 0000:00003B47       curr_internal_temp_calc_invalid
 0000:00003B48       curr_internal_temp_calc_invalid_timer
 0000:00003B49       meter_danger_icon
 0000:00003B4A       meter_overload
 0000:00003B4B       high_voltage_diode
 0000:00003B4C       meas_diode_reprocess_timer_1s
 0000:00003B4D       continuity_beeping
 0000:00003B4E       curr_continuity_threshold
 0000:00003B4F       input_1ms_peak_enabled
 0000:00003B50       peakdet_show_min_always_zero
 0000:00003B51       input_lpf_enabled
 0000:00003B52       meter_mode_acv_dcv
 0000:00003B53       meas_acv_dcv_ac_value_updated
 0000:00003B54       meas_acv_dcv_dc_value_updated
 0000:00003B55       acv_dcv_measuring_dc
 0000:00003B56       meas_acv_dcv_mode_switch_timer
 0000:00003B57       subscr_showing_power_amps
 0000:00003B58       meas_va_never_processed
 0000:00003B59       measuring_amps_of_va_or_volts_of_burden
 0000:00003B5A       meas_amp_burden_timer
 0000:00003B5B       curr_power_volts_range
 0000:00003B5C       curr_power_amps_range
 0000:00003B5D       curr_power_volts_overflow
 0000:00003B5E       curr_power_amps_overflow
 0000:00003B5F       cal_manual_state
 0000:00003B60       cal_sd_state
 0000:00003B61       TIM3_1ms_interrupt_unused
 0000:00003B62       TIM2_10ms_interrupt
 0000:00003B63       TIM2_need_to_prepare_sample
 0000:00003B64       need_to_write_bt_packet
 0000:00003B65       setup_edit_timeout_subcounter_500ms
 0000:00003B66       rtc_last_read_was_new_second
 0000:00003B67       blink_dash_for_hour_minute
 0000:00003B68       editing_rightside_time_val
 0000:00003B69       curr_year
 0000:00003B6A       curr_month
 0000:00003B6B       curr_day
 0000:00003B6C       curr_hour
 0000:00003B6D       curr_minute
 0000:00003B6E       curr_second
 0000:00003B6F       edit_year
 0000:00003B70       edit_month
 0000:00003B71       edit_day
 0000:00003B72       edit_hour
 0000:00003B73       edit_minute
 0000:00003B77       sdio_err_state
 0000:00000000       TIM2_0
 0000:00000000       TIM3
 0000:00000000       LCD_CR
 0000:00000004       LCD_FCR
 0000:00000008       LCD_SR
 0000:0000000C       LCD_CLR
 0000:00000014       LCD_RAM0L
 0000:00000018       LCD_RAM0H
 0000:0000001C       LCD_RAM1L
 0000:00000020       LCD_RAM1H
 0000:00000024       LCD_RAM2L
 0000:00000028       LCD_RAM2H
 0000:0000002C       LCD_RAM3L
 0000:00000030       LCD_RAM3H
 0000:00000008       rtc_dword_40002808
 0000:00000024       rtc_dword_40002824_unused
 0000:00000040       rtc_dword_40002840
 0000:00000000       USART2_1
 0000:00000000       PWR_CR
 0000:00000004       PWR_CSR
 0000:00000000       EXTI_IMR
 0000:00000004       EXTI_EMR
 0000:00000008       EXTI_RTSR
 0000:0000000C       EXTI_FTSR
 0000:00000010       EXTI_SWIER
 0000:00000014       EXTI_PR
 0000:00000000       ADC1_BASE
 0000:00000000       SDIO_POWER
 0000:00000004       SDIO_CLKCR
 0000:00000008       SDIO_ARG
 0000:0000000C       SDIO_CMD
 0000:00000010       SDIO_RESPCMD
 0000:00000014       SDIO_RESP
 0000:00000024       SDIO_DTIMER
 0000:00000028       SDIO_DLEN
 0000:0000002C       SDIO_DCTRL
 0000:00000030       SDIO_DCOUNT
 0000:00000034       SDIO_STA
 0000:00000038       SDIO_ICR
 0000:0000003C       SDIO_MASK
 0000:00000048       SDIO_FIFOCNT
 0000:00000080       SDIO_FIFO
 0000:00000000       GPIOA
 0000:00000400       GPIOB
 0000:00000800       GPIOC
 0000:00000C00       GPIOD
 0000:00001000       GPIOE
 0000:00001400       GPIOH
 0000:00001800       GPIOF
 0000:00001C00       GPIOG
 0000:00000000       RCC_CR
 0000:00000004       RCC_ICSCR
 0000:00000008       RCC_CFGR
 0000:0000000C       RCC_CIR
 0000:00000010       RCC_AHBRSTR
 0000:00000014       RCC_APB2RSTR
 0000:00000018       RCC_APB1RSTR
 0000:0000001C       RCC_AHBENR
 0000:00000020       RCC_APB2ENR
 0000:00000024       RCC_APB1ENR
 0000:00000028       unused_dword_40023828
 0000:00000034       RCC_CSR
 0000:00000000       FLASH_ACR
 0000:00000004       FLASH_PECR
 0000:00000008       FLASH_PDKEYR
 0000:0000000C       FLASH_PEKEYR
 0000:00000010       FLASH_PRGKEYR
 0000:00000014       FLASH_OPTKEYR
 0000:00000018       FLASH_SR
 0000:0000001C       FLASH_OBR
 0000:00000008       SCB_VTOR
